#include <math.h>
#include <stdio.h>
#include <stdlib.h>
#include <string.h>

  int main()
{  int n, i, sum;
   sum=0;
   scanf("%d", &n);
 for(i=1;i<=n;i++){
  if(i%10==7){
   sum+=i*i;}
  else if(i%7==0){
   sum+=i*i;}
  else if(i>=70 && i<=79){
   sum+=i*i;}
    }
    printf("%d", n*(n+1)*(2*n+1)/6-sum);
   return 0;
  }