; ModuleID = '30/1991.c'
source_filename = "30/1991.c"
target datalayout = "e-m:e-p270:32:32-p271:32:32-p272:64:64-i64:64-f80:128-n8:16:32:64-S128"
target triple = "x86_64-pc-linux-gnu"

@.str = private unnamed_addr constant [3 x i8] c"%d\00", align 1

; Function Attrs: noinline nounwind uwtable
define dso_local i32 @main() #0 {
  %1 = alloca i32, align 4
  %2 = alloca i32, align 4
  %3 = alloca i32, align 4
  %4 = alloca i32, align 4
  store i32 0, i32* %1, align 4
  store i32 0, i32* %4, align 4
  %5 = call i32 (i8*, ...) @__isoc99_scanf(i8* getelementptr inbounds ([3 x i8], [3 x i8]* @.str, i64 0, i64 0), i32* %2)
  store i32 1, i32* %3, align 4
  br label %6

6:                                                ; preds = %45, %0
  %7 = load i32, i32* %3, align 4
  %8 = load i32, i32* %2, align 4
  %9 = icmp sle i32 %7, %8
  br i1 %9, label %10, label %48

10:                                               ; preds = %6
  %11 = load i32, i32* %3, align 4
  %12 = srem i32 %11, 10
  %13 = icmp eq i32 %12, 7
  br i1 %13, label %14, label %20

14:                                               ; preds = %10
  %15 = load i32, i32* %3, align 4
  %16 = load i32, i32* %3, align 4
  %17 = mul nsw i32 %15, %16
  %18 = load i32, i32* %4, align 4
  %19 = add nsw i32 %18, %17
  store i32 %19, i32* %4, align 4
  br label %44

20:                                               ; preds = %10
  %21 = load i32, i32* %3, align 4
  %22 = srem i32 %21, 7
  %23 = icmp eq i32 %22, 0
  br i1 %23, label %24, label %30

24:                                               ; preds = %20
  %25 = load i32, i32* %3, align 4
  %26 = load i32, i32* %3, align 4
  %27 = mul nsw i32 %25, %26
  %28 = load i32, i32* %4, align 4
  %29 = add nsw i32 %28, %27
  store i32 %29, i32* %4, align 4
  br label %43

30:                                               ; preds = %20
  %31 = load i32, i32* %3, align 4
  %32 = icmp sge i32 %31, 70
  br i1 %32, label %33, label %42

33:                                               ; preds = %30
  %34 = load i32, i32* %3, align 4
  %35 = icmp sle i32 %34, 79
  br i1 %35, label %36, label %42

36:                                               ; preds = %33
  %37 = load i32, i32* %3, align 4
  %38 = load i32, i32* %3, align 4
  %39 = mul nsw i32 %37, %38
  %40 = load i32, i32* %4, align 4
  %41 = add nsw i32 %40, %39
  store i32 %41, i32* %4, align 4
  br label %42

42:                                               ; preds = %36, %33, %30
  br label %43

43:                                               ; preds = %42, %24
  br label %44

44:                                               ; preds = %43, %14
  br label %45

45:                                               ; preds = %44
  %46 = load i32, i32* %3, align 4
  %47 = add nsw i32 %46, 1
  store i32 %47, i32* %3, align 4
  br label %6

48:                                               ; preds = %6
  %49 = load i32, i32* %2, align 4
  %50 = load i32, i32* %2, align 4
  %51 = add nsw i32 %50, 1
  %52 = mul nsw i32 %49, %51
  %53 = load i32, i32* %2, align 4
  %54 = mul nsw i32 2, %53
  %55 = add nsw i32 %54, 1
  %56 = mul nsw i32 %52, %55
  %57 = sdiv i32 %56, 6
  %58 = load i32, i32* %4, align 4
  %59 = sub nsw i32 %57, %58
  %60 = call i32 (i8*, ...) @printf(i8* getelementptr inbounds ([3 x i8], [3 x i8]* @.str, i64 0, i64 0), i32 %59)
  ret i32 0
}

declare dso_local i32 @__isoc99_scanf(i8*, ...) #1

declare dso_local i32 @printf(i8*, ...) #1


!llvm.module.flags = !{!0}
!llvm.ident = !{!1}

!0 = !{i32 1, !"wchar_size", i32 4}
!1 = !{!"clang version 10.0.0-4ubuntu1 "}
