; ModuleID = 'source-C-CXX/29/1991.c'
source_filename = "source-C-CXX/29/1991.c"
target datalayout = "e-m:e-p270:32:32-p271:32:32-p272:64:64-i64:64-f80:128-n8:16:32:64-S128"
target triple = "x86_64-pc-linux-gnu"

@.str = private unnamed_addr constant [3 x i8] c"%d\00", align 1

; Function Attrs: nofree nounwind sspstrong uwtable
define dso_local i32 @main() local_unnamed_addr #0 {
  %1 = alloca i32, align 4
  %2 = bitcast i32* %1 to i8*
  call void @llvm.lifetime.start.p0i8(i64 4, i8* nonnull %2) #3
  %3 = call i32 (i8*, ...) @__isoc99_scanf(i8* getelementptr inbounds ([3 x i8], [3 x i8]* @.str, i64 0, i64 0), i32* nonnull %1)
  %4 = load i32, i32* %1, align 4, !tbaa !5
  %5 = icmp slt i32 %4, 1
  br i1 %5, label %30, label %6

6:                                                ; preds = %0, %26
  %7 = phi i32 [ %27, %26 ], [ 0, %0 ]
  %8 = phi i32 [ %28, %26 ], [ 1, %0 ]
  %9 = urem i32 %8, 10
  %10 = icmp eq i32 %9, 7
  br i1 %10, label %11, label %14

11:                                               ; preds = %6
  %12 = mul nsw i32 %8, %8
  %13 = add nsw i32 %7, %12
  br label %26

14:                                               ; preds = %6
  %15 = urem i32 %8, 7
  %16 = icmp eq i32 %15, 0
  br i1 %16, label %17, label %20

17:                                               ; preds = %14
  %18 = mul nsw i32 %8, %8
  %19 = add nsw i32 %7, %18
  br label %26

20:                                               ; preds = %14
  %21 = add nsw i32 %8, -70
  %22 = icmp ult i32 %21, 10
  br i1 %22, label %23, label %26

23:                                               ; preds = %20
  %24 = mul nuw nsw i32 %8, %8
  %25 = add nsw i32 %7, %24
  br label %26

26:                                               ; preds = %11, %20, %23, %17
  %27 = phi i32 [ %13, %11 ], [ %19, %17 ], [ %25, %23 ], [ %7, %20 ]
  %28 = add nuw i32 %8, 1
  %29 = icmp eq i32 %8, %4
  br i1 %29, label %30, label %6, !llvm.loop !9

30:                                               ; preds = %26, %0
  %31 = phi i32 [ 0, %0 ], [ %27, %26 ]
  %32 = add i32 %4, 1
  %33 = mul nsw i32 %32, %4
  %34 = shl nsw i32 %4, 1
  %35 = or i32 %34, 1
  %36 = mul nsw i32 %33, %35
  %37 = sdiv i32 %36, 6
  %38 = sub nsw i32 %37, %31
  %39 = call i32 (i8*, ...) @printf(i8* nonnull dereferenceable(1) getelementptr inbounds ([3 x i8], [3 x i8]* @.str, i64 0, i64 0), i32 %38)
  call void @llvm.lifetime.end.p0i8(i64 4, i8* nonnull %2) #3
  ret i32 0
}

; Function Attrs: argmemonly mustprogress nofree nosync nounwind willreturn
declare void @llvm.lifetime.start.p0i8(i64 immarg, i8* nocapture) #1

; Function Attrs: nofree nounwind
declare noundef i32 @__isoc99_scanf(i8* nocapture noundef readonly, ...) local_unnamed_addr #2

; Function Attrs: nofree nounwind
declare noundef i32 @printf(i8* nocapture noundef readonly, ...) local_unnamed_addr #2

; Function Attrs: argmemonly mustprogress nofree nosync nounwind willreturn
declare void @llvm.lifetime.end.p0i8(i64 immarg, i8* nocapture) #1


!llvm.module.flags = !{!0, !1, !2, !3}
!llvm.ident = !{!4}

!0 = !{i32 1, !"wchar_size", i32 4}
!1 = !{i32 7, !"PIC Level", i32 2}
!2 = !{i32 7, !"PIE Level", i32 2}
!3 = !{i32 7, !"uwtable", i32 1}
!4 = !{!"clang version 13.0.0"}
!5 = !{!6, !6, i64 0}
!6 = !{!"int", !7, i64 0}
!7 = !{!"omnipotent char", !8, i64 0}
!8 = !{!"Simple C/C++ TBAA"}
!9 = distinct !{!9, !10}
!10 = !{!"llvm.loop.mustprogress"}
